Certificate:
    Data:
        Version: 1 (0x0)
        Serial Number: 1 (0x1)
    Signature Algorithm: md5WithRSAEncryption
        Issuer: C=US, ST=Unset, L=Unset, O=Unset, CN=www.example.com
        Validity
            Not Before: Sep 16 12:11:29 2013 GMT
            Not After : Sep 16 12:11:29 2014 GMT
        Subject: C=US, ST=Unset, O=Unset, CN=www.example.com
        Subject Public Key Info:
            Public Key Algorithm: rsaEncryption
                Public-Key: (1024 bit)
                Modulus:
                    00:f8:e9:2c:4c:dd:d9:d2:1b:ba:66:27:f2:2b:0b:
                    f9:c0:34:10:cb:0b:4a:d5:70:66:d7:61:f4:cf:82:
                    ce:df:df:3f:2c:e7:8e:f7:2e:56:96:b6:bb:a6:76:
                    1e:32:bf:e0:31:6d:4d:38:35:1f:95:08:11:d4:63:
                    6b:0c:f0:26:01:ad:c8:ca:bf:e2:1d:f8:76:2c:8b:
                    2e:39:fa:61:89:38:a2:da:61:94:e5:4e:74:3b:54:
                    51:8c:bb:ee:d8:f7:08:47:2d:55:0d:df:69:aa:e2:
                    40:f2:cb:07:36:c3:da:97:7d:48:d6:a2:46:76:2d:
                    42:69:a1:1a:2b:0a:ef:5c:7f
                Exponent: 65537 (0x10001)
    Signature Algorithm: md5WithRSAEncryption
         b4:cb:10:e1:c6:b6:5d:ae:8b:7e:21:38:3f:4b:0b:36:3c:ba:
         69:8d:dd:5f:54:c3:24:7f:d8:69:22:f5:cd:93:85:a1:53:87:
         0a:65:d3:51:8e:89:6b:74:50:cd:6a:c9:99:d4:16:70:fa:fb:
         3b:10:e8:49:57:c8:b0:8c:89:7c:d5:46:d9:e9:ca:5f:33:00:
         d1:da:91:1b:b7:69:cc:4d:f5:f4:cd:cf:c6:1d:1c:bf:08:c0:
         c0:8f:0b:67:d7:da:64:4b:8f:01:36:a9:ea:42:c2:fd:28:b6:
         76:54:d9:89:7a:7d:c7:cf:7b:12:26:44:19:e2:a6:08:6f:d7:
         00:8a
-----BEGIN CERTIFICATE-----
MIICDTCCAXYCAQEwDQYJKoZIhvcNAQEEBQAwVzELMAkGA1UEBhMCVVMxDjAMBgNV
BAgTBVVuc2V0MQ4wDAYDVQQHEwVVbnNldDEOMAwGA1UEChMFVW5zZXQxGDAWBgNV
BAMTD3d3dy5leGFtcGxlLmNvbTAeFw0xMzA5MTYxMjExMjlaFw0xNDA5MTYxMjEx
MjlaMEcxCzAJBgNVBAYTAlVTMQ4wDAYDVQQIEwVVbnNldDEOMAwGA1UEChMFVW5z
ZXQxGDAWBgNVBAMTD3d3dy5leGFtcGxlLmNvbTCBnzANBgkqhkiG9w0BAQEFAAOB
jQAwgYkCgYEA+OksTN3Z0hu6ZifyKwv5wDQQywtK1XBm12H0z4LO398/LOeO9y5W
lra7pnYeMr/gMW1NODUflQgR1GNrDPAmAa3Iyr/iHfh2LIsuOfphiTii2mGU5U50
O1RRjLvu2PcIRy1VDd9pquJA8ssHNsPal31I1qJGdi1CaaEaKwrvXH8CAwEAATAN
BgkqhkiG9w0BAQQFAAOBgQC0yxDhxrZdrot+ITg/Sws2PLppjd1fVMMkf9hpIvXN
k4WhU4cKZdNRjolrdFDNasmZ1BZw+vs7EOhJV8iwjIl81UbZ6cpfMwDR2pEbt2nM
TfX0zc/GHRy/CMDAjwtn19pkS48BNqnqQsL9KLZ2VNmJen3Hz3sSJkQZ4qYIb9cA
ig==
-----END CERTIFICATE-----
